target datalayout = "e-m:e-p270:32:32-p271:32:32-p272:64:64-i64:64-i128:128-f80:128-n8:16:32:64-S128"
target triple = "x86_64-pc-linux-gnu"

; Function Attrs: nounwind uwtable
define hidden ptr @SDL_ClosestAudioFormats(i32 noundef %0) #0 {
  %2 = alloca ptr, align 8
  %3 = alloca i32, align 4
  %4 = alloca i32, align 4
  %5 = alloca i32, align 4
  store i32 %0, ptr %3, align 4
  call void @llvm.lifetime.start.p0(i64 4, ptr %4) #6
  store i32 0, ptr %4, align 4
  br label %6

6:                                                ; preds = %24, %1
  %7 = load i32, ptr %4, align 4
  %8 = icmp slt i32 %7, 8
  br i1 %8, label %10, label %9

9:                                                ; preds = %6
  store i32 2, ptr %5, align 4
  br label %27

10:                                               ; preds = %6
  %11 = load i32, ptr %4, align 4
  %12 = sext i32 %11 to i64
  %13 = getelementptr inbounds [8 x [9 x i32]], ptr @format_list, i64 0, i64 %12
  %14 = getelementptr inbounds [9 x i32], ptr %13, i64 0, i64 0
  %15 = load i32, ptr %14, align 4
  %16 = load i32, ptr %3, align 4
  %17 = icmp eq i32 %15, %16
  br i1 %17, label %18, label %23

18:                                               ; preds = %10
  %19 = load i32, ptr %4, align 4
  %20 = sext i32 %19 to i64
  %21 = getelementptr inbounds [8 x [9 x i32]], ptr @format_list, i64 0, i64 %20
  %22 = getelementptr inbounds [9 x i32], ptr %21, i64 0, i64 0
  store ptr %22, ptr %2, align 8
  store i32 1, ptr %5, align 4
  br label %27

23:                                               ; preds = %10
  br label %24

24:                                               ; preds = %23
  %25 = load i32, ptr %4, align 4
  %26 = add nsw i32 %25, 1
  store i32 %26, ptr %4, align 4
  br label %6, !llvm.loop !28

27:                                               ; preds = %18, %9
  call void @llvm.lifetime.end.p0(i64 4, ptr %4) #6
  %28 = load i32, ptr %5, align 4
  switch i32 %28, label %32 [
    i32 2, label %29
    i32 1, label %30
  ]

29:                                               ; preds = %27
  store ptr getelementptr inbounds ([9 x i32], ptr @format_list, i64 0, i64 8), ptr %2, align 8
  br label %30

30:                                               ; preds = %29, %27
  %31 = load ptr, ptr %2, align 8
  ret ptr %31

32:                                               ; preds = %27
  unreachable
}